; Function Attrs: nounwind uwtable
define internal void @_toggle_bottom_all_accel_callback(ptr readnone captures(none) %0) #0 {
  %2 = tail call fastcc i32 @_panel_is_visible(i32 noundef 2)
  %.not = icmp eq i32 %2, 0
  br i1 %.not, label %3, label %7

3:                                                ; preds = %1
  %4 = tail call fastcc i32 @_panel_is_visible(i32 noundef 5)
  %5 = icmp eq i32 %4, 0
  %6 = zext i1 %5 to i32
  br label %7

7:                                                ; preds = %3, %1
  %8 = phi i32 [ 0, %1 ], [ %6, %3 ]
  %9 = load ptr, ptr getelementptr inbounds nuw (i8, ptr @darktable, i64 104), align 8, !tbaa !15
  %10 = load ptr, ptr %9, align 8, !tbaa !63
  tail call void @dt_ui_panel_show(ptr noundef %10, i32 noundef 5, i32 noundef %8, i32 noundef 1)
  %11 = load ptr, ptr getelementptr inbounds nuw (i8, ptr @darktable, i64 104), align 8, !tbaa !15
  %12 = load ptr, ptr %11, align 8, !tbaa !63
  tail call void @dt_ui_panel_show(ptr noundef %12, i32 noundef 2, i32 noundef %8, i32 noundef 1)
  ret void
}